; Function Attrs: mustprogress nounwind uwtable
define void @_ZN9grpc_core8internal17StatusFreeHeapPtrEm(i64 noundef %0) local_unnamed_addr #7 personality ptr @__gxx_personality_v0 {
  %2 = icmp eq i64 %0, 0
  br i1 %2, label %12, label %3

3:                                                ; preds = %1
  %4 = inttoptr i64 %0 to ptr
  %5 = load i64, ptr %4, align 8, !tbaa !8
  %6 = and i64 %5, 1
  %.not.i.i = icmp eq i64 %6, 0
  br i1 %.not.i.i, label %7, label %_ZN4absl12lts_202407226StatusD2Ev.exit

7:                                                ; preds = %3
  %8 = inttoptr i64 %5 to ptr
  invoke void @_ZNK4absl12lts_2024072215status_internal9StatusRep5UnrefEv(ptr noundef nonnull align 8 dereferenceable(48) %8)
          to label %_ZN4absl12lts_202407226StatusD2Ev.exit unwind label %9

9:                                                ; preds = %7
  %10 = landingpad { ptr, i32 }
          catch ptr null
  %11 = extractvalue { ptr, i32 } %10, 0
  tail call void @__clang_call_terminate(ptr %11) #27
  unreachable

_ZN4absl12lts_202407226StatusD2Ev.exit:           ; preds = %3, %7
  tail call void @_ZdlPvm(ptr noundef nonnull %4, i64 noundef 8) #30
  br label %12

12:                                               ; preds = %_ZN4absl12lts_202407226StatusD2Ev.exit, %1
  ret void
}